target datalayout = "e-m:e-p270:32:32-p271:32:32-p272:64:64-i64:64-i128:128-f80:128-n8:16:32:64-S128"
target triple = "x86_64-unknown-linux-gnu"

%"struct.folly::None" = type { i8 }
%"struct.folly::unsafe_default_initialized_cv" = type { i8 }
%"class.folly::Optional" = type { %"struct.folly::Optional<proxygen::HTTPMethod>::StorageTriviallyDestructible" }
%"struct.folly::Optional<proxygen::HTTPMethod>::StorageTriviallyDestructible" = type <{ %union.anon, i8, [3 x i8] }>
%union.anon = type { i32 }
%"class.folly::Range" = type { ptr, ptr }
%"struct.std::_Vector_base" = type { %"struct.std::_Vector_base<std::__cxx11::basic_string<char>, std::allocator<std::__cxx11::basic_string<char>>>::_Vector_impl" }
%"struct.std::_Vector_base<std::__cxx11::basic_string<char>, std::allocator<std::__cxx11::basic_string<char>>>::_Vector_impl" = type { %"struct.std::_Vector_base<std::__cxx11::basic_string<char>, std::allocator<std::__cxx11::basic_string<char>>>::_Vector_impl_data" }
%"struct.std::_Vector_base<std::__cxx11::basic_string<char>, std::allocator<std::__cxx11::basic_string<char>>>::_Vector_impl_data" = type { ptr, ptr, ptr }
%"class.std::__cxx11::basic_string" = type { %"struct.std::__cxx11::basic_string<char>::_Alloc_hider", i64, %union.anon.3 }
%"struct.std::__cxx11::basic_string<char>::_Alloc_hider" = type { ptr }
%union.anon.3 = type { i64, [8 x i8] }
%"struct.folly::AsciiCaseInsensitive" = type { i8 }

@_ZN5follyL4noneE = internal constant %"struct.folly::None" undef, align 1
@_ZN5folly26unsafe_default_initializedE = linkonce_odr constant %"struct.folly::unsafe_default_initialized_cv" undef, comdat, align 1

; Function Attrs: mustprogress nounwind uwtable
define linkonce_odr noundef zeroext i1 @_ZNK5folly20AsciiCaseInsensitiveclEcc(ptr noundef nonnull align 1 dereferenceable(1) %this, i8 noundef signext %lhs, i8 noundef signext %rhs) #1 comdat align 2 {
entry:
  %retval = alloca i1, align 1
  %this.addr = alloca ptr, align 8
  %lhs.addr = alloca i8, align 1
  %rhs.addr = alloca i8, align 1
  %k = alloca i8, align 1
  store ptr %this, ptr %this.addr, align 8
  store i8 %lhs, ptr %lhs.addr, align 1
  store i8 %rhs, ptr %rhs.addr, align 1
  %0 = load i8, ptr %lhs.addr, align 1
  %conv = sext i8 %0 to i32
  %1 = load i8, ptr %rhs.addr, align 1
  %conv2 = sext i8 %1 to i32
  %xor = xor i32 %conv, %conv2
  %conv3 = trunc i32 %xor to i8
  store i8 %conv3, ptr %k, align 1
  %2 = load i8, ptr %k, align 1
  %conv4 = sext i8 %2 to i32
  %cmp = icmp eq i32 %conv4, 0
  br i1 %cmp, label %if.then, label %if.end

if.then:                                          ; preds = %entry
  store i1 true, ptr %retval, align 1
  br label %return

if.end:                                           ; preds = %entry
  %3 = load i8, ptr %k, align 1
  %conv5 = sext i8 %3 to i32
  %cmp6 = icmp ne i32 %conv5, 32
  br i1 %cmp6, label %if.then7, label %if.end8

if.then7:                                         ; preds = %if.end
  store i1 false, ptr %retval, align 1
  br label %return

if.end8:                                          ; preds = %if.end
  %4 = load i8, ptr %lhs.addr, align 1
  %conv9 = sext i8 %4 to i32
  %5 = load i8, ptr %rhs.addr, align 1
  %conv10 = sext i8 %5 to i32
  %or = or i32 %conv9, %conv10
  %conv11 = trunc i32 %or to i8
  store i8 %conv11, ptr %k, align 1
  %6 = load i8, ptr %k, align 1
  %conv12 = sext i8 %6 to i32
  %cmp13 = icmp sge i32 %conv12, 97
  br i1 %cmp13, label %land.rhs, label %land.end

land.rhs:                                         ; preds = %if.end8
  %7 = load i8, ptr %k, align 1
  %conv14 = sext i8 %7 to i32
  %cmp15 = icmp sle i32 %conv14, 122
  br label %land.end

land.end:                                         ; preds = %land.rhs, %if.end8
  %8 = phi i1 [ false, %if.end8 ], [ %cmp15, %land.rhs ]
  store i1 %8, ptr %retval, align 1
  br label %return

return:                                           ; preds = %land.end, %if.then7, %if.then
  %9 = load i1, ptr %retval, align 1
  ret i1 %9
}

; Function Attrs: noreturn nounwind uwtable
define linkonce_odr hidden void @__clang_call_terminate(ptr noundef %0) #7 comdat {
  %2 = call ptr @__cxa_begin_catch(ptr %0) #4
  call void @_ZSt9terminatev() #11
  unreachable
}

; Function Attrs: mustprogress nounwind uwtable
define linkonce_odr void @_ZN5folly8OptionalIN8proxygen10HTTPMethodEE9constructIJS2_EEEvDpOT_(ptr noundef nonnull align 4 dereferenceable(8) %this, ptr noundef nonnull align 4 dereferenceable(4) %args) #1 comdat align 2 {
entry:
  %this.addr = alloca ptr, align 8
  %args.addr = alloca ptr, align 8
  %ptr = alloca ptr, align 8
  store ptr %this, ptr %this.addr, align 8
  store ptr %args, ptr %args.addr, align 8
  %this1 = load ptr, ptr %this.addr, align 8
  %storage_ = getelementptr inbounds %"class.folly::Optional", ptr %this1, i32 0, i32 0
  %0 = getelementptr inbounds %"struct.folly::Optional<proxygen::HTTPMethod>::StorageTriviallyDestructible", ptr %storage_, i32 0, i32 0
  store ptr %0, ptr %ptr, align 8
  %1 = load ptr, ptr %ptr, align 8
  %2 = load ptr, ptr %args.addr, align 8
  %3 = load i32, ptr %2, align 4
  store i32 %3, ptr %1, align 4
  %storage_2 = getelementptr inbounds %"class.folly::Optional", ptr %this1, i32 0, i32 0
  %hasValue = getelementptr inbounds %"struct.folly::Optional<proxygen::HTTPMethod>::StorageTriviallyDestructible", ptr %storage_2, i32 0, i32 1
  store i8 1, ptr %hasValue, align 4
  ret void
}

; Function Attrs: mustprogress nounwind uwtable
define linkonce_odr void @_ZN5folly8OptionalIN8proxygen10HTTPMethodEE28StorageTriviallyDestructibleC2Ev(ptr noundef nonnull align 4 dereferenceable(5) %this) unnamed_addr #1 comdat align 2 {
entry:
  %this.addr.i = alloca ptr, align 8
  %this.addr = alloca ptr, align 8
  store ptr %this, ptr %this.addr, align 8
  %this1 = load ptr, ptr %this.addr, align 8
  %0 = getelementptr inbounds %"struct.folly::Optional<proxygen::HTTPMethod>::StorageTriviallyDestructible", ptr %this1, i32 0, i32 0
  store ptr @_ZN5folly26unsafe_default_initializedE, ptr %this.addr.i, align 8
  store i8 0, ptr %0, align 4
  %hasValue = getelementptr inbounds %"struct.folly::Optional<proxygen::HTTPMethod>::StorageTriviallyDestructible", ptr %this1, i32 0, i32 1
  store i8 0, ptr %hasValue, align 4
  ret void
}

; Function Attrs: mustprogress uwtable
define linkonce_odr noundef zeroext i1 @_ZSt5equalIPKcS1_N5folly20AsciiCaseInsensitiveEEbT_S4_T0_T1_(ptr noundef %__first1, ptr noundef %__last1, ptr noundef %__first2) #0 comdat {
entry:
  %retval = alloca i1, align 1
  %__binary_pred = alloca %"struct.folly::AsciiCaseInsensitive", align 1
  %__first1.addr = alloca ptr, align 8
  %__last1.addr = alloca ptr, align 8
  %__first2.addr = alloca ptr, align 8
  store ptr %__first1, ptr %__first1.addr, align 8
  store ptr %__last1, ptr %__last1.addr, align 8
  store ptr %__first2, ptr %__first2.addr, align 8
  br label %for.cond

for.cond:                                         ; preds = %for.inc, %entry
  %0 = load ptr, ptr %__first1.addr, align 8
  %1 = load ptr, ptr %__last1.addr, align 8
  %cmp = icmp ne ptr %0, %1
  br i1 %cmp, label %for.body, label %for.end

for.body:                                         ; preds = %for.cond
  %2 = load ptr, ptr %__first1.addr, align 8
  %3 = load i8, ptr %2, align 1
  %4 = load ptr, ptr %__first2.addr, align 8
  %5 = load i8, ptr %4, align 1
  %call = call noundef zeroext i1 @_ZNK5folly20AsciiCaseInsensitiveclEcc(ptr noundef nonnull align 1 dereferenceable(1) %__binary_pred, i8 noundef signext %3, i8 noundef signext %5)
  br i1 %call, label %if.end, label %if.then

if.then:                                          ; preds = %for.body
  store i1 false, ptr %retval, align 1
  br label %return

if.end:                                           ; preds = %for.body
  br label %for.inc

for.inc:                                          ; preds = %if.end
  %6 = load ptr, ptr %__first1.addr, align 8
  %incdec.ptr = getelementptr inbounds i8, ptr %6, i32 1
  store ptr %incdec.ptr, ptr %__first1.addr, align 8
  %7 = load ptr, ptr %__first2.addr, align 8
  %incdec.ptr1 = getelementptr inbounds i8, ptr %7, i32 1
  store ptr %incdec.ptr1, ptr %__first2.addr, align 8
  br label %for.cond, !llvm.loop !9

for.end:                                          ; preds = %for.cond
  store i1 true, ptr %retval, align 1
  br label %return

return:                                           ; preds = %for.end, %if.then
  %8 = load i1, ptr %retval, align 1
  ret i1 %8
}

; Function Attrs: mustprogress nounwind uwtable
define linkonce_odr noundef ptr @_ZNK5folly5RangeIPKcE3endEv(ptr noundef nonnull align 8 dereferenceable(16) %this) #1 comdat align 2 {
entry:
  %this.addr = alloca ptr, align 8
  store ptr %this, ptr %this.addr, align 8
  %this1 = load ptr, ptr %this.addr, align 8
  %e_ = getelementptr inbounds %"class.folly::Range", ptr %this1, i32 0, i32 1
  %0 = load ptr, ptr %e_, align 8
  ret ptr %0
}

; Function Attrs: mustprogress nounwind uwtable
define linkonce_odr noundef ptr @_ZNK5folly5RangeIPKcE5beginEv(ptr noundef nonnull align 8 dereferenceable(16) %this) #1 comdat align 2 {
entry:
  %this.addr = alloca ptr, align 8
  store ptr %this, ptr %this.addr, align 8
  %this1 = load ptr, ptr %this.addr, align 8
  %b_ = getelementptr inbounds %"class.folly::Range", ptr %this1, i32 0, i32 0
  %0 = load ptr, ptr %b_, align 8
  ret ptr %0
}

; Function Attrs: mustprogress nounwind uwtable
define linkonce_odr noundef i64 @_ZNK5folly5RangeIPKcE4sizeEv(ptr noundef nonnull align 8 dereferenceable(16) %this) #1 comdat align 2 {
entry:
  %this.addr = alloca ptr, align 8
  store ptr %this, ptr %this.addr, align 8
  %this1 = load ptr, ptr %this.addr, align 8
  %e_ = getelementptr inbounds %"class.folly::Range", ptr %this1, i32 0, i32 1
  %0 = load ptr, ptr %e_, align 8
  %b_ = getelementptr inbounds %"class.folly::Range", ptr %this1, i32 0, i32 0
  %1 = load ptr, ptr %b_, align 8
  %sub.ptr.lhs.cast = ptrtoint ptr %0 to i64
  %sub.ptr.rhs.cast = ptrtoint ptr %1 to i64
  %sub.ptr.sub = sub i64 %sub.ptr.lhs.cast, %sub.ptr.rhs.cast
  ret i64 %sub.ptr.sub
}

; Function Attrs: mustprogress nounwind uwtable
define linkonce_odr void @_ZN5folly8OptionalIN8proxygen10HTTPMethodEEC2ERKNS_4NoneE(ptr noundef nonnull align 4 dereferenceable(8) %this, ptr noundef nonnull align 1 dereferenceable(1) %0) unnamed_addr #1 comdat align 2 personality ptr @__gxx_personality_v0 {
entry:
  %this.addr = alloca ptr, align 8
  %.addr = alloca ptr, align 8
  store ptr %this, ptr %this.addr, align 8
  store ptr %0, ptr %.addr, align 8
  %this1 = load ptr, ptr %this.addr, align 8
  %storage_ = getelementptr inbounds %"class.folly::Optional", ptr %this1, i32 0, i32 0
  invoke void @_ZN5folly8OptionalIN8proxygen10HTTPMethodEE28StorageTriviallyDestructibleC2Ev(ptr noundef nonnull align 4 dereferenceable(5) %storage_)
          to label %invoke.cont unwind label %terminate.lpad

invoke.cont:                                      ; preds = %entry
  ret void

terminate.lpad:                                   ; preds = %entry
  %1 = landingpad { ptr, i32 }
          catch ptr null
  %2 = extractvalue { ptr, i32 } %1, 0
  call void @__clang_call_terminate(ptr %2) #11
  unreachable
}

; Function Attrs: mustprogress nounwind uwtable
define linkonce_odr void @_ZN5folly8OptionalIN8proxygen10HTTPMethodEEC2EOS2_(ptr noundef nonnull align 4 dereferenceable(8) %this, ptr noundef nonnull align 4 dereferenceable(4) %newValue) unnamed_addr #1 comdat align 2 personality ptr @__gxx_personality_v0 {
entry:
  %this.addr = alloca ptr, align 8
  %newValue.addr = alloca ptr, align 8
  store ptr %this, ptr %this.addr, align 8
  store ptr %newValue, ptr %newValue.addr, align 8
  %this1 = load ptr, ptr %this.addr, align 8
  %storage_ = getelementptr inbounds %"class.folly::Optional", ptr %this1, i32 0, i32 0
  invoke void @_ZN5folly8OptionalIN8proxygen10HTTPMethodEE28StorageTriviallyDestructibleC2Ev(ptr noundef nonnull align 4 dereferenceable(5) %storage_)
          to label %invoke.cont unwind label %terminate.lpad

invoke.cont:                                      ; preds = %entry
  %0 = load ptr, ptr %newValue.addr, align 8
  invoke void @_ZN5folly8OptionalIN8proxygen10HTTPMethodEE9constructIJS2_EEEvDpOT_(ptr noundef nonnull align 4 dereferenceable(8) %this1, ptr noundef nonnull align 4 dereferenceable(4) %0)
          to label %invoke.cont2 unwind label %terminate.lpad

invoke.cont2:                                     ; preds = %invoke.cont
  ret void

terminate.lpad:                                   ; preds = %invoke.cont, %entry
  %1 = landingpad { ptr, i32 }
          catch ptr null
  %2 = extractvalue { ptr, i32 } %1, 0
  call void @__clang_call_terminate(ptr %2) #11
  unreachable
}

; Function Attrs: mustprogress uwtable
define linkonce_odr noundef zeroext i1 @_ZN8proxygen20caseInsensitiveEqualEN5folly5RangeIPKcEES4_(ptr %s.coerce0, ptr %s.coerce1, ptr %t.coerce0, ptr %t.coerce1) #0 comdat {
entry:
  %retval = alloca i1, align 1
  %s = alloca %"class.folly::Range", align 8
  %t = alloca %"class.folly::Range", align 8
  %0 = getelementptr inbounds { ptr, ptr }, ptr %s, i32 0, i32 0
  store ptr %s.coerce0, ptr %0, align 8
  %1 = getelementptr inbounds { ptr, ptr }, ptr %s, i32 0, i32 1
  store ptr %s.coerce1, ptr %1, align 8
  %2 = getelementptr inbounds { ptr, ptr }, ptr %t, i32 0, i32 0
  store ptr %t.coerce0, ptr %2, align 8
  %3 = getelementptr inbounds { ptr, ptr }, ptr %t, i32 0, i32 1
  store ptr %t.coerce1, ptr %3, align 8
  %call = call noundef i64 @_ZNK5folly5RangeIPKcE4sizeEv(ptr noundef nonnull align 8 dereferenceable(16) %s)
  %call1 = call noundef i64 @_ZNK5folly5RangeIPKcE4sizeEv(ptr noundef nonnull align 8 dereferenceable(16) %t)
  %cmp = icmp ne i64 %call, %call1
  br i1 %cmp, label %if.then, label %if.end

if.then:                                          ; preds = %entry
  store i1 false, ptr %retval, align 1
  br label %return

if.end:                                           ; preds = %entry
  %call2 = call noundef ptr @_ZNK5folly5RangeIPKcE5beginEv(ptr noundef nonnull align 8 dereferenceable(16) %s)
  %call3 = call noundef ptr @_ZNK5folly5RangeIPKcE3endEv(ptr noundef nonnull align 8 dereferenceable(16) %s)
  %call4 = call noundef ptr @_ZNK5folly5RangeIPKcE5beginEv(ptr noundef nonnull align 8 dereferenceable(16) %t)
  %call5 = call noundef zeroext i1 @_ZSt5equalIPKcS1_N5folly20AsciiCaseInsensitiveEEbT_S4_T0_T1_(ptr noundef %call2, ptr noundef %call3, ptr noundef %call4)
  store i1 %call5, ptr %retval, align 1
  br label %return

return:                                           ; preds = %if.end, %if.then
  %4 = load i1, ptr %retval, align 1
  ret i1 %4
}

; Function Attrs: mustprogress nounwind uwtable
define linkonce_odr void @_ZN5folly5RangeIPKcEC2ISaIcES2_TnNS_6detail13IsCharPointerIT0_E10const_typeELi0EEERKNSt7__cxx1112basic_stringIcSt11char_traitsIcET_EE(ptr noundef nonnull align 8 dereferenceable(16) %this, ptr noundef nonnull align 8 dereferenceable(32) %str) unnamed_addr #1 comdat align 2 {
entry:
  %this.addr = alloca ptr, align 8
  %str.addr = alloca ptr, align 8
  store ptr %this, ptr %this.addr, align 8
  store ptr %str, ptr %str.addr, align 8
  %this1 = load ptr, ptr %this.addr, align 8
  %b_ = getelementptr inbounds %"class.folly::Range", ptr %this1, i32 0, i32 0
  %0 = load ptr, ptr %str.addr, align 8
  %call = call noundef ptr @_ZNKSt7__cxx1112basic_stringIcSt11char_traitsIcESaIcEE4dataEv(ptr noundef nonnull align 8 dereferenceable(32) %0) #4
  store ptr %call, ptr %b_, align 8
  %e_ = getelementptr inbounds %"class.folly::Range", ptr %this1, i32 0, i32 1
  %b_2 = getelementptr inbounds %"class.folly::Range", ptr %this1, i32 0, i32 0
  %1 = load ptr, ptr %b_2, align 8
  %2 = load ptr, ptr %str.addr, align 8
  %call3 = call noundef i64 @_ZNKSt7__cxx1112basic_stringIcSt11char_traitsIcESaIcEE4sizeEv(ptr noundef nonnull align 8 dereferenceable(32) %2) #4
  %add.ptr = getelementptr inbounds i8, ptr %1, i64 %call3
  store ptr %add.ptr, ptr %e_, align 8
  ret void
}

; Function Attrs: mustprogress nounwind uwtable
define linkonce_odr noundef nonnull align 8 dereferenceable(32) ptr @_ZNKSt6vectorINSt7__cxx1112basic_stringIcSt11char_traitsIcESaIcEEESaIS5_EEixEm(ptr noundef nonnull align 8 dereferenceable(24) %this, i64 noundef %__n) #1 comdat align 2 {
entry:
  %this.addr = alloca ptr, align 8
  %__n.addr = alloca i64, align 8
  store ptr %this, ptr %this.addr, align 8
  store i64 %__n, ptr %__n.addr, align 8
  %this1 = load ptr, ptr %this.addr, align 8
  %_M_impl = getelementptr inbounds %"struct.std::_Vector_base", ptr %this1, i32 0, i32 0
  %_M_start = getelementptr inbounds %"struct.std::_Vector_base<std::__cxx11::basic_string<char>, std::allocator<std::__cxx11::basic_string<char>>>::_Vector_impl_data", ptr %_M_impl, i32 0, i32 0
  %0 = load ptr, ptr %_M_start, align 8
  %1 = load i64, ptr %__n.addr, align 8
  %add.ptr = getelementptr inbounds %"class.std::__cxx11::basic_string", ptr %0, i64 %1
  ret ptr %add.ptr
}

; Function Attrs: mustprogress nounwind uwtable
define linkonce_odr noundef i64 @_ZNKSt6vectorINSt7__cxx1112basic_stringIcSt11char_traitsIcESaIcEEESaIS5_EE4sizeEv(ptr noundef nonnull align 8 dereferenceable(24) %this) #1 comdat align 2 {
entry:
  %this.addr = alloca ptr, align 8
  store ptr %this, ptr %this.addr, align 8
  %this1 = load ptr, ptr %this.addr, align 8
  %_M_impl = getelementptr inbounds %"struct.std::_Vector_base", ptr %this1, i32 0, i32 0
  %_M_finish = getelementptr inbounds %"struct.std::_Vector_base<std::__cxx11::basic_string<char>, std::allocator<std::__cxx11::basic_string<char>>>::_Vector_impl_data", ptr %_M_impl, i32 0, i32 1
  %0 = load ptr, ptr %_M_finish, align 8
  %_M_impl2 = getelementptr inbounds %"struct.std::_Vector_base", ptr %this1, i32 0, i32 0
  %_M_start = getelementptr inbounds %"struct.std::_Vector_base<std::__cxx11::basic_string<char>, std::allocator<std::__cxx11::basic_string<char>>>::_Vector_impl_data", ptr %_M_impl2, i32 0, i32 0
  %1 = load ptr, ptr %_M_start, align 8
  %sub.ptr.lhs.cast = ptrtoint ptr %0 to i64
  %sub.ptr.rhs.cast = ptrtoint ptr %1 to i64
  %sub.ptr.sub = sub i64 %sub.ptr.lhs.cast, %sub.ptr.rhs.cast
  %sub.ptr.div = sdiv exact i64 %sub.ptr.sub, 32
  ret i64 %sub.ptr.div
}

; Function Attrs: mustprogress uwtable
define void @_ZN8proxygen14stringToMethodEN5folly5RangeIPKcEE(ptr noalias sret(%"class.folly::Optional") align 4 %agg.result, ptr %method.coerce0, ptr %method.coerce1) #0 {
entry:
  %result.ptr = alloca ptr, align 8
  %method = alloca %"class.folly::Range", align 8
  %strings = alloca ptr, align 8
  %index = alloca i64, align 8
  %cur = alloca ptr, align 8
  %agg.tmp = alloca %"class.folly::Range", align 8
  %agg.tmp3 = alloca %"class.folly::Range", align 8
  %ref.tmp = alloca i32, align 4
  store ptr %agg.result, ptr %result.ptr, align 8
  %0 = getelementptr inbounds { ptr, ptr }, ptr %method, i32 0, i32 0
  store ptr %method.coerce0, ptr %0, align 8
  %1 = getelementptr inbounds { ptr, ptr }, ptr %method, i32 0, i32 1
  store ptr %method.coerce1, ptr %1, align 8
  %call = call noundef nonnull align 8 dereferenceable(24) ptr @_ZN12_GLOBAL__N_116getMethodStringsB5cxx11Ev()
  store ptr %call, ptr %strings, align 8
  store i64 0, ptr %index, align 8
  br label %for.cond

for.cond:                                         ; preds = %for.inc, %entry
  %2 = load i64, ptr %index, align 8
  %3 = load ptr, ptr %strings, align 8
  %call1 = call noundef i64 @_ZNKSt6vectorINSt7__cxx1112basic_stringIcSt11char_traitsIcESaIcEEESaIS5_EE4sizeEv(ptr noundef nonnull align 8 dereferenceable(24) %3) #4
  %cmp = icmp ult i64 %2, %call1
  br i1 %cmp, label %for.body, label %for.end

for.body:                                         ; preds = %for.cond
  %4 = load ptr, ptr %strings, align 8
  %5 = load i64, ptr %index, align 8
  %call2 = call noundef nonnull align 8 dereferenceable(32) ptr @_ZNKSt6vectorINSt7__cxx1112basic_stringIcSt11char_traitsIcESaIcEEESaIS5_EEixEm(ptr noundef nonnull align 8 dereferenceable(24) %4, i64 noundef %5) #4
  store ptr %call2, ptr %cur, align 8
  %6 = load ptr, ptr %cur, align 8
  call void @_ZN5folly5RangeIPKcEC2ISaIcES2_TnNS_6detail13IsCharPointerIT0_E10const_typeELi0EEERKNSt7__cxx1112basic_stringIcSt11char_traitsIcET_EE(ptr noundef nonnull align 8 dereferenceable(16) %agg.tmp, ptr noundef nonnull align 8 dereferenceable(32) %6)
  call void @llvm.memcpy.p0.p0.i64(ptr align 8 %agg.tmp3, ptr align 8 %method, i64 16, i1 false)
  %7 = getelementptr inbounds { ptr, ptr }, ptr %agg.tmp, i32 0, i32 0
  %8 = load ptr, ptr %7, align 8
  %9 = getelementptr inbounds { ptr, ptr }, ptr %agg.tmp, i32 0, i32 1
  %10 = load ptr, ptr %9, align 8
  %11 = getelementptr inbounds { ptr, ptr }, ptr %agg.tmp3, i32 0, i32 0
  %12 = load ptr, ptr %11, align 8
  %13 = getelementptr inbounds { ptr, ptr }, ptr %agg.tmp3, i32 0, i32 1
  %14 = load ptr, ptr %13, align 8
  %call4 = call noundef zeroext i1 @_ZN8proxygen20caseInsensitiveEqualEN5folly5RangeIPKcEES4_(ptr %8, ptr %10, ptr %12, ptr %14)
  br i1 %call4, label %if.then, label %if.end

if.then:                                          ; preds = %for.body
  %15 = load i64, ptr %index, align 8
  %conv = trunc i64 %15 to i32
  store i32 %conv, ptr %ref.tmp, align 4
  call void @_ZN5folly8OptionalIN8proxygen10HTTPMethodEEC2EOS2_(ptr noundef nonnull align 4 dereferenceable(8) %agg.result, ptr noundef nonnull align 4 dereferenceable(4) %ref.tmp) #4
  br label %return

if.end:                                           ; preds = %for.body
  br label %for.inc

for.inc:                                          ; preds = %if.end
  %16 = load i64, ptr %index, align 8
  %inc = add i64 %16, 1
  store i64 %inc, ptr %index, align 8
  br label %for.cond, !llvm.loop !4

for.end:                                          ; preds = %for.cond
  call void @_ZN5folly8OptionalIN8proxygen10HTTPMethodEEC2ERKNS_4NoneE(ptr noundef nonnull align 4 dereferenceable(8) %agg.result, ptr noundef nonnull align 1 dereferenceable(1) @_ZN5follyL4noneE) #4
  br label %return

return:                                           ; preds = %for.end, %if.then
  ret void
}