; Function Attrs: mustprogress uwtable
define void @_ZN8proxygen14stringToMethodEN5folly5RangeIPKcEE(ptr noalias writeonly sret(%"class.folly::Optional") align 4 captures(none) %agg.result, ptr %method.coerce0, ptr %method.coerce1) local_unnamed_addr #0 personality ptr @__gxx_personality_v0 {
entry:
  %call = tail call fastcc noundef nonnull align 8 dereferenceable(24) ptr @_ZN12_GLOBAL__N_116getMethodStringsB5cxx11Ev()
  %_M_finish.i = getelementptr inbounds nuw i8, ptr %call, i64 8
  %0 = load ptr, ptr %_M_finish.i, align 8
  %1 = load ptr, ptr %call, align 8
  %cmp16.not = icmp eq ptr %0, %1
  br i1 %cmp16.not, label %for.end, label %for.body.lr.ph

for.body.lr.ph:                                   ; preds = %entry
  %sub.ptr.lhs.cast.i2.i = ptrtoint ptr %method.coerce1 to i64
  %sub.ptr.rhs.cast.i3.i = ptrtoint ptr %method.coerce0 to i64
  %sub.ptr.sub.i4.i = sub i64 %sub.ptr.lhs.cast.i2.i, %sub.ptr.rhs.cast.i3.i
  %cmp.not7.i.i = icmp eq ptr %method.coerce1, %method.coerce0
  br label %for.body

for.body:                                         ; preds = %for.body.lr.ph, %for.inc
  %2 = phi ptr [ %1, %for.body.lr.ph ], [ %8, %for.inc ]
  %index.017 = phi i64 [ 0, %for.body.lr.ph ], [ %inc, %for.inc ]
  %add.ptr.i = getelementptr inbounds %"class.std::__cxx11::basic_string", ptr %2, i64 %index.017
  %call.i = tail call noundef ptr @_ZNKSt7__cxx1112basic_stringIcSt11char_traitsIcESaIcEE4dataEv(ptr noundef nonnull align 8 dereferenceable(32) %add.ptr.i) #12
  %call3.i = tail call noundef i64 @_ZNKSt7__cxx1112basic_stringIcSt11char_traitsIcESaIcEE4sizeEv(ptr noundef nonnull align 8 dereferenceable(32) %add.ptr.i) #12
  %add.ptr.i5 = getelementptr inbounds i8, ptr %call.i, i64 %call3.i
  %cmp.not.i = icmp eq i64 %call3.i, %sub.ptr.sub.i4.i
  br i1 %cmp.not.i, label %if.end.i, label %for.inc

if.end.i:                                         ; preds = %for.body
  br i1 %cmp.not7.i.i, label %if.then, label %for.body.i.i

for.body.i.i:                                     ; preds = %if.end.i, %for.inc.i.i
  %__first2.addr.09.i.i = phi ptr [ %incdec.ptr1.i.i, %for.inc.i.i ], [ %method.coerce0, %if.end.i ]
  %__first1.addr.08.i.i = phi ptr [ %incdec.ptr.i.i, %for.inc.i.i ], [ %call.i, %if.end.i ]
  %3 = load i8, ptr %__first1.addr.08.i.i, align 1
  %4 = load i8, ptr %__first2.addr.09.i.i, align 1
  %cmp.i.i.i = icmp eq i8 %3, %4
  br i1 %cmp.i.i.i, label %for.inc.i.i, label %if.end.i.i.i

if.end.i.i.i:                                     ; preds = %for.body.i.i
  %xor.i.i.i = xor i8 %4, %3
  %cmp6.not.i.i.i = icmp eq i8 %xor.i.i.i, 32
  br i1 %cmp6.not.i.i.i, label %_ZNK5folly20AsciiCaseInsensitiveclEcc.exit.i.i, label %for.inc

_ZNK5folly20AsciiCaseInsensitiveclEcc.exit.i.i:   ; preds = %if.end.i.i.i
  %or6.i.i.i = or i8 %4, %3
  %5 = add i8 %or6.i.i.i, -97
  %6 = icmp ult i8 %5, 26
  br i1 %6, label %for.inc.i.i, label %for.inc

for.inc.i.i:                                      ; preds = %_ZNK5folly20AsciiCaseInsensitiveclEcc.exit.i.i, %for.body.i.i
  %incdec.ptr.i.i = getelementptr inbounds nuw i8, ptr %__first1.addr.08.i.i, i64 1
  %incdec.ptr1.i.i = getelementptr inbounds nuw i8, ptr %__first2.addr.09.i.i, i64 1
  %cmp.not.i.i = icmp eq ptr %incdec.ptr.i.i, %add.ptr.i5
  br i1 %cmp.not.i.i, label %if.then, label %for.body.i.i, !llvm.loop !4

if.then:                                          ; preds = %if.end.i, %for.inc.i.i
  %conv = trunc i64 %index.017 to i32
  %hasValue.i.i = getelementptr inbounds nuw i8, ptr %agg.result, i64 4
  store i32 %conv, ptr %agg.result, align 4
  store i8 1, ptr %hasValue.i.i, align 4
  br label %return

for.inc:                                          ; preds = %_ZNK5folly20AsciiCaseInsensitiveclEcc.exit.i.i, %if.end.i.i.i, %for.body
  %inc = add nuw i64 %index.017, 1
  %7 = load ptr, ptr %_M_finish.i, align 8
  %8 = load ptr, ptr %call, align 8
  %sub.ptr.lhs.cast.i = ptrtoint ptr %7 to i64
  %sub.ptr.rhs.cast.i = ptrtoint ptr %8 to i64
  %sub.ptr.sub.i = sub i64 %sub.ptr.lhs.cast.i, %sub.ptr.rhs.cast.i
  %sub.ptr.div.i = ashr exact i64 %sub.ptr.sub.i, 5
  %cmp = icmp ult i64 %inc, %sub.ptr.div.i
  br i1 %cmp, label %for.body, label %for.end, !llvm.loop !6

for.end:                                          ; preds = %for.inc, %entry
  store i8 0, ptr %agg.result, align 4
  %hasValue.i.i6 = getelementptr inbounds nuw i8, ptr %agg.result, i64 4
  store i8 0, ptr %hasValue.i.i6, align 4
  br label %return

return:                                           ; preds = %for.end, %if.then
  ret void
}